target datalayout = "e-m:e-p270:32:32-p271:32:32-p272:64:64-i64:64-i128:128-f80:128-n8:16:32:64-S128"
target triple = "x86_64-pc-linux-gnu"

@.str.398 = private unnamed_addr constant [30 x i8] c"  checking keylog line: %.*s\0A\00", align 1

; Function Attrs: nounwind uwtable
define internal void @ssh_keylog_process_lines(ptr noundef %0, i32 noundef %1) #0 {
  %3 = alloca ptr, align 8
  %4 = alloca i32, align 4
  %5 = alloca ptr, align 8
  %6 = alloca ptr, align 8
  %7 = alloca ptr, align 8
  %8 = alloca i64, align 8
  %9 = alloca ptr, align 8
  store ptr %0, ptr %3, align 8
  store i32 %1, ptr %4, align 4
  %10 = load ptr, ptr %3, align 8
  store ptr %10, ptr %5, align 8
  %11 = load ptr, ptr %5, align 8
  %12 = load i32, ptr %4, align 4
  %13 = zext i32 %12 to i64
  %14 = getelementptr i8, ptr %11, i64 %13
  store ptr %14, ptr %6, align 8
  br label %15

15:                                               ; preds = %63, %2
  %16 = load ptr, ptr %5, align 8
  %17 = icmp ne ptr %16, null
  br i1 %17, label %18, label %22

18:                                               ; preds = %15
  %19 = load ptr, ptr %5, align 8
  %20 = load ptr, ptr %6, align 8
  %21 = icmp ult ptr %19, %20
  br label %22

22:                                               ; preds = %18, %15
  %23 = phi i1 [ false, %15 ], [ %21, %18 ]
  br i1 %23, label %24, label %72

24:                                               ; preds = %22
  %25 = load ptr, ptr %5, align 8
  store ptr %25, ptr %7, align 8
  %26 = load ptr, ptr %7, align 8
  %27 = load ptr, ptr %6, align 8
  %28 = load ptr, ptr %7, align 8
  %29 = ptrtoint ptr %27 to i64
  %30 = ptrtoint ptr %28 to i64
  %31 = sub i64 %29, %30
  %32 = call ptr @memchr(ptr noundef %26, i32 noundef 10, i64 noundef %31) #11
  store ptr %32, ptr %5, align 8
  %33 = load ptr, ptr %5, align 8
  %34 = icmp ne ptr %33, null
  br i1 %34, label %35, label %43

35:                                               ; preds = %24
  %36 = load ptr, ptr %5, align 8
  %37 = load ptr, ptr %7, align 8
  %38 = ptrtoint ptr %36 to i64
  %39 = ptrtoint ptr %37 to i64
  %40 = sub i64 %38, %39
  store i64 %40, ptr %8, align 8
  %41 = load ptr, ptr %5, align 8
  %42 = getelementptr i8, ptr %41, i32 1
  store ptr %42, ptr %5, align 8
  br label %49

43:                                               ; preds = %24
  %44 = load ptr, ptr %6, align 8
  %45 = load ptr, ptr %7, align 8
  %46 = ptrtoint ptr %44 to i64
  %47 = ptrtoint ptr %45 to i64
  %48 = sub i64 %46, %47
  store i64 %48, ptr %8, align 8
  br label %49

49:                                               ; preds = %43, %35
  %50 = load i64, ptr %8, align 8
  %51 = icmp sgt i64 %50, 0
  br i1 %51, label %52, label %63

52:                                               ; preds = %49
  %53 = load ptr, ptr %7, align 8
  %54 = load i64, ptr %8, align 8
  %55 = sub i64 %54, 1
  %56 = getelementptr i8, ptr %53, i64 %55
  %57 = load i8, ptr %56, align 1
  %58 = sext i8 %57 to i32
  %59 = icmp eq i32 %58, 13
  br i1 %59, label %60, label %63

60:                                               ; preds = %52
  %61 = load i64, ptr %8, align 8
  %62 = add i64 %61, -1
  store i64 %62, ptr %8, align 8
  br label %63

63:                                               ; preds = %60, %52, %49
  %64 = load i64, ptr %8, align 8
  %65 = trunc i64 %64 to i32
  %66 = load ptr, ptr %7, align 8
  call void (ptr, ...) @ssh_debug_printf(ptr noundef @.str.398, i32 noundef %65, ptr noundef %66)
  %67 = load ptr, ptr %7, align 8
  %68 = load i64, ptr %8, align 8
  %69 = call noalias ptr @g_strndup(ptr noundef %67, i64 noundef %68)
  store ptr %69, ptr %9, align 8
  %70 = load ptr, ptr %9, align 8
  call void @ssh_keylog_process_line(ptr noundef %70)
  %71 = load ptr, ptr %9, align 8
  call void @g_free(ptr noundef %71)
  br label %15, !llvm.loop !7

72:                                               ; preds = %22
  ret void
}

; Function Attrs: nounwind uwtable
define internal void @ssh_secrets_block_callback(ptr noundef %0, i32 noundef %1) #0 {
  %3 = alloca ptr, align 8
  %4 = alloca i32, align 4
  store ptr %0, ptr %3, align 8
  store i32 %1, ptr %4, align 4
  %5 = load ptr, ptr %3, align 8
  %6 = load i32, ptr %4, align 4
  call void @ssh_keylog_process_lines(ptr noundef %5, i32 noundef %6)
  ret void
}