; Function Attrs: nounwind uwtable
define internal void @ssh_secrets_block_callback(ptr noundef %0, i32 noundef %1) #0 {
  %3 = zext i32 %1 to i64
  %4 = getelementptr i8, ptr %0, i64 %3
  %5 = icmp ne ptr %0, null
  %6 = icmp ult ptr %0, %4
  %7 = and i1 %5, %6
  br i1 %7, label %.lr.ph.i, label %ssh_keylog_process_lines.exit

.lr.ph.i:                                         ; preds = %2
  %8 = ptrtoint ptr %4 to i64
  br label %9

9:                                                ; preds = %23, %.lr.ph.i
  %.030.i = phi ptr [ %0, %.lr.ph.i ], [ %15, %23 ]
  %10 = ptrtoint ptr %.030.i to i64
  %11 = sub i64 %8, %10
  %12 = tail call ptr @memchr(ptr noundef nonnull %.030.i, i32 noundef 10, i64 noundef %11) #22
  %.not.i = icmp eq ptr %12, null
  %13 = ptrtoint ptr %12 to i64
  %14 = sub i64 %13, %10
  %15 = getelementptr i8, ptr %12, i64 1
  %.025.i = select i1 %.not.i, i64 %11, i64 %14
  %.1.i = select i1 %.not.i, ptr null, ptr %15
  %16 = icmp sgt i64 %.025.i, 0
  br i1 %16, label %17, label %23

17:                                               ; preds = %9
  %18 = getelementptr i8, ptr %.030.i, i64 %.025.i
  %19 = getelementptr i8, ptr %18, i64 -1
  %20 = load i8, ptr %19, align 1
  %21 = icmp eq i8 %20, 13
  %22 = sext i1 %21 to i64
  %spec.select.i = add nsw i64 %.025.i, %22
  br label %23

23:                                               ; preds = %17, %9
  %.126.i = phi i64 [ %.025.i, %9 ], [ %spec.select.i, %17 ]
  %24 = trunc i64 %.126.i to i32
  tail call void (ptr, ...) @ssh_debug_printf(ptr noundef nonnull @.str.398, i32 noundef %24, ptr noundef nonnull %.030.i)
  %25 = tail call noalias ptr @g_strndup(ptr noundef nonnull %.030.i, i64 noundef %.126.i) #21
  tail call fastcc void @ssh_keylog_process_line(ptr noundef %25)
  tail call void @g_free(ptr noundef %25) #21
  %26 = icmp ne ptr %.1.i, null
  %27 = icmp ult ptr %.1.i, %4
  %28 = and i1 %26, %27
  br i1 %28, label %9, label %ssh_keylog_process_lines.exit, !llvm.loop !6

ssh_keylog_process_lines.exit:                    ; preds = %23, %2
  ret void
}